; Function Attrs: mustprogress nofree norecurse nounwind sspstrong willreturn memory(argmem: readwrite) uwtable
define dso_local zeroext i1 @block_copy_call_succeeded(ptr noundef readonly captures(none) %call_state) local_unnamed_addr #8 {
entry:
  %finished = getelementptr inbounds nuw i8, ptr %call_state, i64 72
  %0 = load atomic i8, ptr %finished acquire, align 8
  %tobool = trunc i8 %0 to i1
  br i1 %tobool, label %while.end6, label %land.end

while.end6:                                       ; preds = %entry
  %cancelled = getelementptr inbounds nuw i8, ptr %call_state, i64 88
  %1 = load atomic i8, ptr %cancelled monotonic, align 8
  %tobool8 = trunc i8 %1 to i1
  br i1 %tobool8, label %land.end, label %land.rhs

land.rhs:                                         ; preds = %while.end6
  %ret = getelementptr inbounds nuw i8, ptr %call_state, i64 116
  %2 = load i32, ptr %ret, align 4
  %cmp = icmp eq i32 %2, 0
  br label %land.end

land.end:                                         ; preds = %land.rhs, %while.end6, %entry
  %3 = phi i1 [ false, %while.end6 ], [ false, %entry ], [ %cmp, %land.rhs ]
  ret i1 %3
}